target datalayout = "e-m:e-p270:32:32-p271:32:32-p272:64:64-i64:64-i128:128-f80:128-n8:16:32:64-S128"
target triple = "x86_64-pc-linux-gnu"

%class.aiVector3t = type { double, double, double }
%"struct.std::_Base_bitset" = type { i64 }
%"class.Assimp::STEP::Object" = type { ptr, i64, ptr }
%"struct.Assimp::IFC::Schema_2x3::IfcGeometricRepresentationItem.base" = type { %"struct.Assimp::IFC::Schema_2x3::IfcRepresentationItem.base", [7 x i8], %"struct.Assimp::STEP::ObjectHelper.base.91" }
%"struct.Assimp::IFC::Schema_2x3::IfcRepresentationItem.base" = type { %"struct.Assimp::STEP::ObjectHelper.base.89" }
%"struct.Assimp::STEP::ObjectHelper.base.89" = type <{ ptr, i8 }>
%"struct.Assimp::STEP::ObjectHelper.base.91" = type <{ ptr, i8 }>
%"struct.Assimp::IFC::Schema_2x3::IfcVector" = type { %"struct.Assimp::IFC::Schema_2x3::IfcGeometricRepresentationItem.base", %"struct.Assimp::STEP::ObjectHelper.base.98", %"struct.Assimp::STEP::Lazy", double, %"class.Assimp::STEP::Object" }
%"struct.Assimp::STEP::ObjectHelper.base.98" = type { ptr, %"class.std::bitset.97" }
%"class.std::bitset.97" = type { %"struct.std::_Base_bitset" }
%"struct.Assimp::STEP::Lazy" = type { ptr }

; Function Attrs: inlinehint mustprogress nounwind uwtable
define linkonce_odr hidden noundef nonnull align 8 dereferenceable(24) ptr @_ZN10aiVector3tIdEmLEd(ptr noundef nonnull align 8 dereferenceable(24) %0, double noundef %1) #3 comdat align 2 {
  %3 = alloca ptr, align 8
  %4 = alloca double, align 8
  store ptr %0, ptr %3, align 8
  store double %1, ptr %4, align 8
  %5 = load ptr, ptr %3, align 8
  %6 = load double, ptr %4, align 8
  %7 = getelementptr inbounds nuw %class.aiVector3t, ptr %5, i32 0, i32 0
  %8 = load double, ptr %7, align 8
  %9 = fmul double %8, %6
  store double %9, ptr %7, align 8
  %10 = load double, ptr %4, align 8
  %11 = getelementptr inbounds nuw %class.aiVector3t, ptr %5, i32 0, i32 1
  %12 = load double, ptr %11, align 8
  %13 = fmul double %12, %10
  store double %13, ptr %11, align 8
  %14 = load double, ptr %4, align 8
  %15 = getelementptr inbounds nuw %class.aiVector3t, ptr %5, i32 0, i32 2
  %16 = load double, ptr %15, align 8
  %17 = fmul double %16, %14
  store double %17, ptr %15, align 8
  ret ptr %5
}

; Function Attrs: mustprogress uwtable
define hidden void @_ZN6Assimp3IFC13ConvertVectorER10aiVector3tIdERKNS0_10Schema_2x39IfcVectorE(ptr noundef nonnull align 8 dereferenceable(24) %0, ptr noundef nonnull align 8 dereferenceable(64) %1) #0 {
  %3 = alloca ptr, align 8
  %4 = alloca ptr, align 8
  store ptr %0, ptr %3, align 8
  store ptr %1, ptr %4, align 8
  %5 = load ptr, ptr %3, align 8
  %6 = load ptr, ptr %4, align 8
  %7 = getelementptr inbounds nuw %"struct.Assimp::IFC::Schema_2x3::IfcVector", ptr %6, i32 0, i32 2
  %8 = call noundef nonnull align 8 dereferenceable(72) ptr @_ZNK6Assimp4STEP4LazyINS_3IFC10Schema_2x312IfcDirectionEEcvRKS4_Ev(ptr noundef nonnull align 8 dereferenceable(8) %7)
  call void @_ZN6Assimp3IFC16ConvertDirectionER10aiVector3tIdERKNS0_10Schema_2x312IfcDirectionE(ptr noundef nonnull align 8 dereferenceable(24) %5, ptr noundef nonnull align 8 dereferenceable(72) %8)
  %9 = load ptr, ptr %4, align 8
  %10 = getelementptr inbounds nuw %"struct.Assimp::IFC::Schema_2x3::IfcVector", ptr %9, i32 0, i32 3
  %11 = load double, ptr %10, align 8
  %12 = load ptr, ptr %3, align 8
  %13 = call noundef nonnull align 8 dereferenceable(24) ptr @_ZN10aiVector3tIdEmLEd(ptr noundef nonnull align 8 dereferenceable(24) %12, double noundef %11)
  ret void
}