; Function Attrs: mustprogress uwtable
define hidden void @_ZN6Assimp3IFC13ConvertVectorER10aiVector3tIdERKNS0_10Schema_2x39IfcVectorE(ptr noundef nonnull align 8 captures(none) dereferenceable(24) initializes((0, 24)) %0, ptr noundef nonnull align 8 dereferenceable(64) %1) local_unnamed_addr #7 {
  %3 = getelementptr inbounds nuw i8, ptr %1, i64 48
  %4 = tail call noundef nonnull align 8 dereferenceable(72) ptr @_ZNK6Assimp4STEP4LazyINS_3IFC10Schema_2x312IfcDirectionEEcvRKS4_Ev(ptr noundef nonnull align 8 dereferenceable(8) %3)
  tail call void @_ZN6Assimp3IFC16ConvertDirectionER10aiVector3tIdERKNS0_10Schema_2x312IfcDirectionE(ptr noundef nonnull align 8 dereferenceable(24) %0, ptr noundef nonnull align 8 dereferenceable(72) %4)
  %5 = getelementptr inbounds nuw i8, ptr %1, i64 56
  %6 = load double, ptr %5, align 8
  %7 = load double, ptr %0, align 8
  %8 = fmul double %6, %7
  store double %8, ptr %0, align 8
  %9 = getelementptr inbounds nuw i8, ptr %0, i64 8
  %10 = load double, ptr %9, align 8
  %11 = fmul double %6, %10
  store double %11, ptr %9, align 8
  %12 = getelementptr inbounds nuw i8, ptr %0, i64 16
  %13 = load double, ptr %12, align 8
  %14 = fmul double %6, %13
  store double %14, ptr %12, align 8
  ret void
}